#include <math.h>
#include <stdio.h>
#include <stdlib.h>
#include <string.h>

int main()
{  
   int w,i,j,m,n,s,h;
   int x[1000],y[1000],z[1000];
   scanf("%d",&w);
   for(i=1;i<=365;i++)
   {  
      
       x[i]=(w+i-1)%7;
    }
   for(j=1;j<=365;j++)
   {
      if(j<=31)
        { y[j]=j;z[j]=1;}
      else if(j<=59)
         {y[j]=j-31;z[j]=2;}
      else if(j<=90)
         {y[j]=j-59;z[j]=3;}
      else if(j<=120)
         {y[j]=j-90;z[j]=4;}
      else if(j<=151)
         {y[j]=j-120;z[j]=5;}
      else if(j<=181)
         {y[j]=j-151;z[j]=6;}
      else if(j<=212)
         {y[j]=j-181;z[j]=7;}
      else if(j<=243)
         {y[j]=j-212;z[j]=8;}
      else if(j<=273)
         {y[j]=j-243;z[j]=9;}
      else if(j<=304)
         {y[j]=j-273;z[j]=10;}
      else if(j<=334)
         {y[j]=j-304;z[j]=11;}
      else if(j<=365)
        { y[j]=j-334;z[j]=12;}
}
      for(i=1;i<=365;i++)
        { if(x[i]==5&&y[i]==13)
            printf ("%d\n",z[i]);
         }
       return 0;
}